; Function Attrs: null_pointer_is_valid sspstrong uwtable
define ptr @serv_name_lookup(i32 noundef %0, i32 noundef %1) local_unnamed_addr #3 {
  %3 = alloca ptr, align 8
  call void @llvm.lifetime.start.p0(i64 8, ptr nonnull %3) #24
  store ptr null, ptr %3, align 8
  %4 = call fastcc ptr @_serv_name_lookup(i32 noundef %0, i32 noundef %1, ptr noundef nonnull %3)
  %.not = icmp eq ptr %4, null
  br i1 %.not, label %5, label %25

5:                                                ; preds = %2
  %6 = load ptr, ptr %3, align 8
  %7 = icmp eq ptr %6, null
  br i1 %7, label %8, label %15

8:                                                ; preds = %5
  %9 = load ptr, ptr @addr_resolv_scope, align 8
  %10 = call noalias dereferenceable_or_null(40) ptr @wmem_alloc0(ptr noundef %9, i64 noundef 40) #26
  store ptr %10, ptr %3, align 8
  %11 = load ptr, ptr @serv_port_hashtable, align 8
  %12 = zext i32 %1 to i64
  %13 = inttoptr i64 %12 to ptr
  %14 = call ptr @wmem_map_insert(ptr noundef %11, ptr noundef %13, ptr noundef %10)
  %.pre = load ptr, ptr %3, align 8
  br label %15

15:                                               ; preds = %8, %5
  %16 = phi ptr [ %.pre, %8 ], [ %6, %5 ]
  %17 = getelementptr inbounds nuw i8, ptr %16, i64 32
  %18 = load ptr, ptr %17, align 8
  %19 = icmp eq ptr %18, null
  br i1 %19, label %20, label %25

20:                                               ; preds = %15
  %21 = load ptr, ptr @addr_resolv_scope, align 8
  %22 = call noalias ptr (ptr, ptr, ...) @wmem_strdup_printf(ptr noundef %21, ptr noundef nonnull @.str, i32 noundef %1)
  %23 = load ptr, ptr %3, align 8
  %24 = getelementptr inbounds nuw i8, ptr %23, i64 32
  store ptr %22, ptr %24, align 8
  br label %25

25:                                               ; preds = %15, %20, %2
  %.0 = phi ptr [ %4, %2 ], [ %22, %20 ], [ %18, %15 ]
  call void @llvm.lifetime.end.p0(i64 8, ptr nonnull %3) #24
  ret ptr %.0
}